target datalayout = "e-m:e-p270:32:32-p271:32:32-p272:64:64-i64:64-i128:128-f80:128-n8:16:32:64-S128"
target triple = "x86_64-pc-linux-gnu"

%struct._GtkDarktableGradientSlider = type { %struct._GtkDrawingArea, ptr, i32, i32, i32, [10 x double], [10 x double], [10 x i32], double, double, [3 x double], i32, i32, i32, i32, i32, i32, i32, i32, i32, ptr }
%struct._GtkDrawingArea = type { %struct._GtkWidget, ptr }
%struct._GtkWidget = type { %struct._GObject, ptr }
%struct._GObject = type { %struct._GTypeInstance, i32, ptr }
%struct._GTypeInstance = type { ptr }

@.str.1 = private unnamed_addr constant [16 x i8] c"gslider != NULL\00", align 1
@__func__.dtgtk_gradient_slider_multivalue_set_markers = private unnamed_addr constant [45 x i8] c"dtgtk_gradient_slider_multivalue_set_markers\00", align 1

; Function Attrs: nounwind uwtable
define void @dtgtk_gradient_slider_multivalue_set_markers(ptr noundef %0, ptr noundef %1) #0 {
  %3 = alloca ptr, align 8
  %4 = alloca ptr, align 8
  %5 = alloca i32, align 4
  %6 = alloca i32, align 4
  %7 = alloca i32, align 4
  store ptr %0, ptr %3, align 8, !tbaa !24
  store ptr %1, ptr %4, align 8, !tbaa !100
  br label %8

8:                                                ; preds = %2
  call void @llvm.lifetime.start.p0(i64 4, ptr %5) #11
  %9 = load ptr, ptr %3, align 8, !tbaa !24
  %10 = icmp ne ptr %9, null
  br i1 %10, label %11, label %12

11:                                               ; preds = %8
  store i32 1, ptr %5, align 4, !tbaa !13
  br label %13

12:                                               ; preds = %8
  store i32 0, ptr %5, align 4, !tbaa !13
  br label %13

13:                                               ; preds = %12, %11
  %14 = load i32, ptr %5, align 4, !tbaa !13
  store i32 %14, ptr %6, align 4, !tbaa !13
  call void @llvm.lifetime.end.p0(i64 4, ptr %5) #11
  %15 = load i32, ptr %6, align 4, !tbaa !13
  %16 = sext i32 %15 to i64
  %17 = call i64 @llvm.expect.i64(i64 %16, i64 1)
  %18 = icmp ne i64 %17, 0
  br i1 %18, label %19, label %20

19:                                               ; preds = %13
  br label %21

20:                                               ; preds = %13
  call void @g_return_if_fail_warning(ptr noundef null, ptr noundef @__func__.dtgtk_gradient_slider_multivalue_set_markers, ptr noundef @.str.1)
  br label %48

21:                                               ; preds = %19
  br label %22

22:                                               ; preds = %21
  call void @llvm.lifetime.start.p0(i64 4, ptr %7) #11
  store i32 0, ptr %7, align 4, !tbaa !13
  br label %23

23:                                               ; preds = %41, %22
  %24 = load i32, ptr %7, align 4, !tbaa !13
  %25 = load ptr, ptr %3, align 8, !tbaa !24
  %26 = getelementptr inbounds nuw %struct._GtkDarktableGradientSlider, ptr %25, i32 0, i32 4
  %27 = load i32, ptr %26, align 8, !tbaa !26
  %28 = icmp slt i32 %24, %27
  br i1 %28, label %30, label %29

29:                                               ; preds = %23
  call void @llvm.lifetime.end.p0(i64 4, ptr %7) #11
  br label %44

30:                                               ; preds = %23
  %31 = load ptr, ptr %4, align 8, !tbaa !100
  %32 = load i32, ptr %7, align 4, !tbaa !13
  %33 = sext i32 %32 to i64
  %34 = getelementptr inbounds i32, ptr %31, i64 %33
  %35 = load i32, ptr %34, align 4, !tbaa !13
  %36 = load ptr, ptr %3, align 8, !tbaa !24
  %37 = getelementptr inbounds nuw %struct._GtkDarktableGradientSlider, ptr %36, i32 0, i32 7
  %38 = load i32, ptr %7, align 4, !tbaa !13
  %39 = sext i32 %38 to i64
  %40 = getelementptr inbounds [10 x i32], ptr %37, i64 0, i64 %39
  store i32 %35, ptr %40, align 4, !tbaa !13
  br label %41

41:                                               ; preds = %30
  %42 = load i32, ptr %7, align 4, !tbaa !13
  %43 = add nsw i32 %42, 1
  store i32 %43, ptr %7, align 4, !tbaa !13
  br label %23

44:                                               ; preds = %29
  %45 = load ptr, ptr %3, align 8, !tbaa !24
  %46 = call i64 @gtk_widget_get_type() #12
  %47 = call ptr @g_type_check_instance_cast(ptr noundef %45, i64 noundef %46)
  call void @gtk_widget_queue_draw(ptr noundef %47)
  br label %48

48:                                               ; preds = %44, %20
  ret void
}