; Function Attrs: nounwind uwtable
define void @dtgtk_gradient_slider_multivalue_set_markers(ptr noundef %0, ptr noundef readonly captures(none) %1) local_unnamed_addr #0 {
  %.not = icmp eq ptr %0, null
  br i1 %.not, label %7, label %.preheader, !prof !45

.preheader:                                       ; preds = %2
  %3 = getelementptr inbounds nuw i8, ptr %0, i64 56
  %4 = load i32, ptr %3, align 8, !tbaa !16
  %5 = icmp sgt i32 %4, 0
  br i1 %5, label %.lr.ph, label %._crit_edge

.lr.ph:                                           ; preds = %.preheader
  %6 = getelementptr inbounds nuw i8, ptr %0, i64 224
  %wide.trip.count = zext nneg i32 %4 to i64
  br label %10

7:                                                ; preds = %2
  tail call void @g_return_if_fail_warning(ptr noundef null, ptr noundef nonnull @__func__.dtgtk_gradient_slider_multivalue_set_markers, ptr noundef nonnull @.str.1) #14
  br label %14

._crit_edge:                                      ; preds = %10, %.preheader
  %8 = tail call i64 @gtk_widget_get_type() #15
  %9 = tail call ptr @g_type_check_instance_cast(ptr noundef nonnull %0, i64 noundef %8) #14
  tail call void @gtk_widget_queue_draw(ptr noundef %9) #14
  br label %14

10:                                               ; preds = %.lr.ph, %10
  %indvars.iv = phi i64 [ 0, %.lr.ph ], [ %indvars.iv.next, %10 ]
  %11 = getelementptr inbounds nuw i32, ptr %1, i64 %indvars.iv
  %12 = load i32, ptr %11, align 4, !tbaa !44
  %13 = getelementptr inbounds nuw [10 x i32], ptr %6, i64 0, i64 %indvars.iv
  store i32 %12, ptr %13, align 4, !tbaa !44
  %indvars.iv.next = add nuw nsw i64 %indvars.iv, 1
  %exitcond.not = icmp eq i64 %indvars.iv.next, %wide.trip.count
  br i1 %exitcond.not, label %._crit_edge, label %10

14:                                               ; preds = %._crit_edge, %7
  ret void
}